; Function Attrs: mustprogress nofree norecurse nosync nounwind willreturn memory(write, argmem: readwrite, inaccessiblemem: none) uwtable
define dso_local noundef i32 @uv_fs_event_init(ptr noundef %0, ptr noundef initializes((8, 20), (32, 48), (88, 92)) %1) local_unnamed_addr #12 {
  %3 = getelementptr inbounds nuw i8, ptr %1, i64 8
  store ptr %0, ptr %3, align 8
  %4 = getelementptr inbounds nuw i8, ptr %1, i64 16
  store i32 3, ptr %4, align 8
  %5 = getelementptr inbounds nuw i8, ptr %1, i64 88
  store i32 8, ptr %5, align 8
  %6 = getelementptr inbounds nuw i8, ptr %0, i64 16
  %7 = getelementptr inbounds nuw i8, ptr %1, i64 32
  store ptr %6, ptr %7, align 8
  %8 = getelementptr inbounds nuw i8, ptr %0, i64 24
  %9 = load ptr, ptr %8, align 8
  %10 = getelementptr inbounds nuw i8, ptr %1, i64 40
  store ptr %9, ptr %10, align 8
  store ptr %7, ptr %9, align 8
  store ptr %7, ptr %8, align 8
  %11 = getelementptr inbounds nuw i8, ptr %1, i64 80
  store ptr null, ptr %11, align 8
  ret i32 0
}